; Function Attrs: mustprogress uwtable
define hidden void @_ZN2dd11pdd_manager3divERKNS_3pddERK8rational(ptr dead_on_unwind noalias writable sret(%"class.dd::pdd") align 8 captures(none) initializes((0, 4), (8, 16)) %0, ptr noundef nonnull align 8 dereferenceable(952) %1, ptr noundef nonnull readonly align 8 captures(none) dereferenceable(16) %2, ptr noundef nonnull align 8 dereferenceable(32) %3) local_unnamed_addr #3 align 2 personality ptr @__gxx_personality_v0 {
  store i32 0, ptr %0, align 8, !tbaa !119
  %5 = getelementptr inbounds nuw i8, ptr %0, i64 8
  store ptr %1, ptr %5, align 8, !tbaa !122
  %6 = load ptr, ptr %1, align 8, !tbaa !91
  %7 = load i32, ptr %6, align 4
  %8 = and i32 %7, 1023
  %.not.i.i = icmp eq i32 %8, 1023
  br i1 %.not.i.i, label %_ZN2dd3pddC2EjPNS_11pdd_managerE.exit, label %9

9:                                                ; preds = %4
  %10 = add i32 %7, 1
  %11 = and i32 %10, 1023
  %12 = and i32 %7, -1024
  %13 = or disjoint i32 %11, %12
  store i32 %13, ptr %6, align 4
  br label %_ZN2dd3pddC2EjPNS_11pdd_managerE.exit

_ZN2dd3pddC2EjPNS_11pdd_managerE.exit:            ; preds = %4, %9
  %14 = invoke noundef zeroext i1 @_ZN2dd11pdd_manager7try_divERKNS_3pddERK8rationalRS1_(ptr noundef nonnull align 8 dereferenceable(952) %1, ptr noundef nonnull align 8 dereferenceable(16) %2, ptr noundef nonnull align 8 dereferenceable(32) %3, ptr noundef nonnull align 8 dereferenceable(16) %0)
          to label %15 unwind label %18

15:                                               ; preds = %_ZN2dd3pddC2EjPNS_11pdd_managerE.exit
  br i1 %14, label %32, label %16

16:                                               ; preds = %15
  invoke void @_Z26notify_assertion_violationPKciS0_(ptr noundef nonnull @.str.1, i32 noundef 574, ptr noundef nonnull @.str.4)
          to label %17 unwind label %18

17:                                               ; preds = %16
  invoke void @_Z18invoke_exit_actionj(i32 noundef 114)
          to label %32 unwind label %18

18:                                               ; preds = %17, %16, %_ZN2dd3pddC2EjPNS_11pdd_managerE.exit
  %19 = landingpad { ptr, i32 }
          cleanup
  %20 = load ptr, ptr %5, align 8, !tbaa !122
  %21 = load i32, ptr %0, align 8, !tbaa !119
  %22 = load ptr, ptr %20, align 8, !tbaa !91
  %23 = zext i32 %21 to i64
  %24 = getelementptr inbounds nuw %"struct.dd::pdd_manager::node", ptr %22, i64 %23
  %25 = load i32, ptr %24, align 4
  %26 = and i32 %25, 1023
  %.not.i.i5 = icmp eq i32 %26, 1023
  br i1 %.not.i.i5, label %_ZN2dd3pddD2Ev.exit, label %27

27:                                               ; preds = %18
  %28 = add i32 %25, 1023
  %29 = and i32 %28, 1023
  %30 = and i32 %25, -1024
  %31 = or disjoint i32 %29, %30
  store i32 %31, ptr %24, align 4
  br label %_ZN2dd3pddD2Ev.exit

_ZN2dd3pddD2Ev.exit:                              ; preds = %18, %27
  resume { ptr, i32 } %19

32:                                               ; preds = %15, %17
  ret void
}